; Function Attrs: mustprogress nounwind uwtable
define void @_ZN32pxrInternal_v0_24__pxrReserved__18TfScopeDescription14SetDescriptionERKNSt7__cxx1112basic_stringIcSt11char_traitsIcESaIcEEE(ptr noundef nonnull align 8 dereferenceable(104) %0, ptr noundef nonnull align 8 dereferenceable(32) %1) local_unnamed_addr #3 align 2 personality ptr @__gxx_personality_v0 {
  %3 = getelementptr inbounds nuw i8, ptr %0, i64 88
  %4 = load ptr, ptr %3, align 8
  %5 = getelementptr inbounds nuw i8, ptr %4, i64 8
  %6 = atomicrmw xchg ptr %5, i8 1 seq_cst, align 1
  %7 = trunc i8 %6 to i1
  br i1 %7, label %.lr.ph.i.i.i, label %_ZN3tbb6detail2d118unique_scoped_lockINS1_10spin_mutexEED2Ev.exit

.lr.ph.i.i.i:                                     ; preds = %2, %_ZN3tbb6detail2d014atomic_backoff5pauseEv.exit.i.i.i
  %.sroa.0.02.i.i.i = phi i32 [ %.sroa.0.1.i.i.i, %_ZN3tbb6detail2d014atomic_backoff5pauseEv.exit.i.i.i ], [ 1, %2 ]
  %8 = icmp slt i32 %.sroa.0.02.i.i.i, 17
  br i1 %8, label %9, label %14

9:                                                ; preds = %.lr.ph.i.i.i
  %10 = icmp sgt i32 %.sroa.0.02.i.i.i, 0
  br i1 %10, label %.lr.ph.i.i.i.i.i, label %_ZN3tbb6detail2d0L13machine_pauseEi.exit.i.i.i.i

.lr.ph.i.i.i.i.i:                                 ; preds = %9, %.lr.ph.i.i.i.i.i
  %.01.i.i.i.i.i = phi i32 [ %11, %.lr.ph.i.i.i.i.i ], [ %.sroa.0.02.i.i.i, %9 ]
  %11 = add nsw i32 %.01.i.i.i.i.i, -1
  tail call void @llvm.x86.sse2.pause()
  %12 = icmp samesign ugt i32 %.01.i.i.i.i.i, 1
  br i1 %12, label %.lr.ph.i.i.i.i.i, label %_ZN3tbb6detail2d0L13machine_pauseEi.exit.i.i.i.i, !llvm.loop !5

_ZN3tbb6detail2d0L13machine_pauseEi.exit.i.i.i.i: ; preds = %.lr.ph.i.i.i.i.i, %9
  %13 = shl nsw i32 %.sroa.0.02.i.i.i, 1
  br label %_ZN3tbb6detail2d014atomic_backoff5pauseEv.exit.i.i.i

14:                                               ; preds = %.lr.ph.i.i.i
  %15 = tail call noundef i32 @sched_yield() #9
  br label %_ZN3tbb6detail2d014atomic_backoff5pauseEv.exit.i.i.i

_ZN3tbb6detail2d014atomic_backoff5pauseEv.exit.i.i.i: ; preds = %14, %_ZN3tbb6detail2d0L13machine_pauseEi.exit.i.i.i.i
  %.sroa.0.1.i.i.i = phi i32 [ %13, %_ZN3tbb6detail2d0L13machine_pauseEi.exit.i.i.i.i ], [ %.sroa.0.02.i.i.i, %14 ]
  %16 = atomicrmw xchg ptr %5, i8 1 seq_cst, align 1
  %17 = trunc i8 %16 to i1
  br i1 %17, label %.lr.ph.i.i.i, label %_ZN3tbb6detail2d118unique_scoped_lockINS1_10spin_mutexEED2Ev.exit, !llvm.loop !7

_ZN3tbb6detail2d118unique_scoped_lockINS1_10spin_mutexEED2Ev.exit: ; preds = %_ZN3tbb6detail2d014atomic_backoff5pauseEv.exit.i.i.i, %2
  %18 = tail call noundef ptr @_ZNKSt7__cxx1112basic_stringIcSt11char_traitsIcESaIcEE5c_strEv(ptr noundef nonnull align 8 dereferenceable(32) %1) #9
  %19 = getelementptr inbounds nuw i8, ptr %0, i64 40
  store ptr %18, ptr %19, align 8
  store atomic i8 0, ptr %5 release, align 1
  %20 = getelementptr inbounds nuw i8, ptr %0, i64 32
  %21 = load i8, ptr %20, align 8
  %22 = trunc i8 %21 to i1
  br i1 %22, label %23, label %_ZNSt8optionalINSt7__cxx1112basic_stringIcSt11char_traitsIcESaIcEEEEaSESt9nullopt_t.exit

23:                                               ; preds = %_ZN3tbb6detail2d118unique_scoped_lockINS1_10spin_mutexEED2Ev.exit
  store i8 0, ptr %20, align 8
  tail call void @_ZNSt7__cxx1112basic_stringIcSt11char_traitsIcESaIcEED1Ev(ptr noundef nonnull align 8 dereferenceable(40) %0) #9
  br label %_ZNSt8optionalINSt7__cxx1112basic_stringIcSt11char_traitsIcESaIcEEEEaSESt9nullopt_t.exit

_ZNSt8optionalINSt7__cxx1112basic_stringIcSt11char_traitsIcESaIcEEEEaSESt9nullopt_t.exit: ; preds = %_ZN3tbb6detail2d118unique_scoped_lockINS1_10spin_mutexEED2Ev.exit, %23
  ret void
}